Certificate:
    Data:
        Version: 3 (0x2)
        Serial Number: 1 (0x1)
    Signature Algorithm: sha256WithRSAEncryption
        Issuer: C=IT, ST=Milano, O=Personal CA MitM, OU=Personal CA Unit MitM, CN=Personal CA Common Name/emailAddress=mycadefault@myca.com
        Validity
            Not Before: Oct 14 16:18:16 2020 GMT
            Not After : Oct 14 16:18:16 2021 GMT
        Subject: C=IT, ST=BS1, O=MyServer, OU=MyServer Unit, CN=MyServer Common Name/emailAddress=myserverdefaul@myserver.com
        Subject Public Key Info:
            Public Key Algorithm: rsaEncryption
                Public-Key: (2048 bit)
                Modulus:
                    00:d2:e7:f0:ea:a8:9b:44:f7:43:f5:66:ab:73:fa:
                    4c:6c:3d:05:eb:76:56:41:99:04:67:08:69:7b:32:
                    ce:48:4a:8b:d7:06:0e:f8:42:01:5a:c7:3f:cd:5a:
                    e7:3a:11:9e:76:c3:5d:90:6c:a0:36:41:a9:22:d7:
                    c9:23:74:b0:e0:ec:cf:11:91:fb:35:59:9e:63:90:
                    0f:3a:68:a4:07:3e:d3:a3:be:12:b4:c6:2a:e9:cc:
                    5f:5a:91:b6:83:c3:30:fd:50:d7:de:57:af:95:64:
                    30:f3:57:d9:7d:d9:34:95:5c:1f:16:4a:30:a0:ca:
                    f1:3c:79:a7:46:6f:a7:c9:dd:88:22:b0:40:d5:7f:
                    7c:5c:a4:e2:95:57:a9:ad:b1:5f:a8:7b:bd:28:c0:
                    b4:02:85:27:21:fd:2c:9c:eb:da:d7:e6:eb:bc:fc:
                    4d:70:e1:3e:09:5d:55:37:a1:a4:d9:38:5c:7a:91:
                    65:6d:21:be:20:31:21:bc:c7:b3:e5:bd:3e:0f:4f:
                    7e:47:6b:45:b3:85:5b:ec:4f:e0:02:b8:58:4c:49:
                    3e:a2:2f:46:35:f7:14:73:e9:88:3f:57:0d:6d:c3:
                    52:78:8a:88:37:56:45:71:78:67:7e:65:3b:fa:af:
                    f5:1d:61:4e:e6:2f:d3:8c:24:9b:e1:81:33:9e:fd:
                    18:13
                Exponent: 65537 (0x10001)
        X509v3 extensions:
            X509v3 Basic Constraints: 
                CA:FALSE
            Netscape Comment: 
                OpenSSL Generated Certificate
            X509v3 Subject Key Identifier: 
                0B:0F:D1:B7:89:B8:87:0A:E3:70:6F:7A:9D:63:B1:18:A7:A4:E0:D5
            X509v3 Authority Key Identifier: 
                keyid:19:33:90:35:7C:84:AE:CB:96:E5:76:D1:0E:38:FF:9C:CB:E4:7C:36

            X509v3 Subject Alternative Name: 
                DNS:www.myserver.com, DNS:*myserver.com, DNS:www.atotallydifferentserver.com
    Signature Algorithm: sha256WithRSAEncryption
         a0:49:d1:1f:36:44:4c:9a:ce:ed:0b:d7:03:9e:ac:eb:8e:e2:
         5c:20:8d:81:fb:9d:05:3f:be:64:25:90:10:e8:c7:12:a5:ca:
         63:5a:ff:d0:0c:1a:00:16:6a:43:0f:af:4f:26:4b:79:90:dc:
         60:4b:23:94:8b:b1:bf:98:e7:0d:b1:f5:4e:07:55:5e:c2:c8:
         d9:35:dd:e2:4b:d3:f0:31:9e:87:4f:84:11:3d:e4:99:59:aa:
         f4:59:35:f5:1c:1c:bd:40:78:2a:02:bc:45:b4:d1:8c:67:0e:
         d7:56:d0:e4:61:70:50:f2:08:82:a0:c5:48:64:ac:b5:c9:f2:
         e1:74:62:8b:f2:a5:63:9e:b3:24:94:a4:ca:a6:fe:83:1c:f5:
         2e:15:98:bd:88:91:14:5d:f4:10:00:36:64:28:d4:0b:e2:10:
         4a:2f:78:19:fa:de:0d:40:a5:50:60:ed:e0:44:10:96:c0:c6:
         7b:c9:1a:35:6b:ac:f9:52:4a:11:83:4a:8b:70:ec:8e:8f:8d:
         f6:a6:c9:af:14:94:27:51:35:2c:b7:d5:16:64:05:54:36:ed:
         aa:a5:79:73:69:8f:8a:95:ba:84:0d:3b:e8:35:86:23:1d:2f:
         9d:0f:43:3a:02:48:2a:1e:8e:6e:21:bc:9f:e1:f3:c3:a2:96:
         98:38:fb:85
-----BEGIN CERTIFICATE-----
MIIEeDCCA2CgAwIBAgIBATANBgkqhkiG9w0BAQsFADCBoDELMAkGA1UEBhMCSVQx
DzANBgNVBAgMBk1pbGFubzEZMBcGA1UECgwQUGVyc29uYWwgQ0EgTWl0TTEeMBwG
A1UECwwVUGVyc29uYWwgQ0EgVW5pdCBNaXRNMSAwHgYDVQQDDBdQZXJzb25hbCBD
QSBDb21tb24gTmFtZTEjMCEGCSqGSIb3DQEJARYUbXljYWRlZmF1bHRAbXljYS5j
b20wHhcNMjAxMDE0MTYxODE2WhcNMjExMDE0MTYxODE2WjCBkTELMAkGA1UEBhMC
SVQxDDAKBgNVBAgMA0JTMTERMA8GA1UECgwITXlTZXJ2ZXIxFjAUBgNVBAsMDU15
U2VydmVyIFVuaXQxHTAbBgNVBAMMFE15U2VydmVyIENvbW1vbiBOYW1lMSowKAYJ
KoZIhvcNAQkBFhtteXNlcnZlcmRlZmF1bEBteXNlcnZlci5jb20wggEiMA0GCSqG
SIb3DQEBAQUAA4IBDwAwggEKAoIBAQDS5/DqqJtE90P1Zqtz+kxsPQXrdlZBmQRn
CGl7Ms5ISovXBg74QgFaxz/NWuc6EZ52w12QbKA2Qaki18kjdLDg7M8Rkfs1WZ5j
kA86aKQHPtOjvhK0xirpzF9akbaDwzD9UNfeV6+VZDDzV9l92TSVXB8WSjCgyvE8
eadGb6fJ3YgisEDVf3xcpOKVV6mtsV+oe70owLQChSch/Syc69rX5uu8/E1w4T4J
XVU3oaTZOFx6kWVtIb4gMSG8x7PlvT4PT35Ha0WzhVvsT+ACuFhMST6iL0Y19xRz
6Yg/Vw1tw1J4iog3VkVxeGd+ZTv6r/UdYU7mL9OMJJvhgTOe/RgTAgMBAAGjgckw
gcYwCQYDVR0TBAIwADAsBglghkgBhvhCAQ0EHxYdT3BlblNTTCBHZW5lcmF0ZWQg
Q2VydGlmaWNhdGUwHQYDVR0OBBYEFAsP0beJuIcK43Bvep1jsRinpODVMB8GA1Ud
IwQYMBaAFBkzkDV8hK7LluV20Q44/5zL5Hw2MEsGA1UdEQREMEKCEHd3dy5teXNl
cnZlci5jb22CDSpteXNlcnZlci5jb22CH3d3dy5hdG90YWxseWRpZmZlcmVudHNl
cnZlci5jb20wDQYJKoZIhvcNAQELBQADggEBAKBJ0R82REyazu0L1wOerOuO4lwg
jYH7nQU/vmQlkBDoxxKlymNa/9AMGgAWakMPr08mS3mQ3GBLI5SLsb+Y5w2x9U4H
VV7CyNk13eJL0/AxnodPhBE95JlZqvRZNfUcHL1AeCoCvEW00YxnDtdW0ORhcFDy
CIKgxUhkrLXJ8uF0YovypWOesySUpMqm/oMc9S4VmL2IkRRd9BAANmQo1AviEEov
eBn63g1ApVBg7eBEEJbAxnvJGjVrrPlSShGDSotw7I6Pjfamya8UlCdRNSy31RZk
BVQ27aqleXNpj4qVuoQNO+g1hiMdL50PQzoCSCoejm4hvJ/h88Oilpg4+4U=
-----END CERTIFICATE-----
