Certificate:
    Data:
        Version: 3 (0x2)
        Serial Number: 0 (0x0)
    Signature Algorithm: sha256WithRSAEncryption
        Issuer: C=IT, ST=Milano, O=Personal CA MitM, OU=Personal CA Unit MitM, CN=Personal CA Common Name/emailAddress=mycadefault@myca.com
        Validity
            Not Before: Oct 14 15:57:27 2020 GMT
            Not After : Jun 30 23:59:59 2033 GMT
        Subject: C=IT, ST=Milano, O=Personal CA MitM, OU=Personal CA Unit MitM, CN=Personal CA Common Name/emailAddress=mycadefault@myca.com
        Subject Public Key Info:
            Public Key Algorithm: rsaEncryption
                Public-Key: (2048 bit)
                Modulus:
                    00:c0:e2:f5:78:2e:38:74:73:78:3d:5c:d9:fd:d4:
                    01:82:23:2d:bc:72:a0:eb:fa:85:8a:87:d6:10:d0:
                    a5:b4:b7:dd:2a:03:a6:a9:d9:34:95:d6:65:2b:3e:
                    b1:32:50:c1:09:78:83:21:3b:1f:a8:ed:28:85:7a:
                    ba:9c:0e:02:b5:28:c9:6a:38:ed:4d:d4:67:35:c4:
                    82:e8:2b:a5:0a:ad:37:1a:d8:c5:d7:8e:08:03:a6:
                    7f:c1:20:92:c8:91:ce:07:09:e6:a2:14:99:7a:4d:
                    f4:08:03:d5:a6:a3:22:64:21:ba:d4:6d:91:19:01:
                    40:27:3b:70:59:83:d2:e5:dc:c4:09:54:71:e0:f7:
                    d8:34:71:75:e7:82:d9:bb:ce:c8:e3:dc:7f:64:28:
                    63:1d:47:b7:4c:3b:c5:de:a1:2c:81:dc:b5:24:7d:
                    82:a5:b3:bc:85:bc:9c:87:a8:b1:c9:7f:ac:4e:6d:
                    2e:f8:ae:4d:54:c2:e5:af:52:8c:b1:8d:cf:35:e3:
                    1e:45:54:94:d6:94:89:3c:3e:60:f9:6d:0e:af:7f:
                    5d:81:cc:bd:f9:65:35:87:5c:c4:58:c6:57:7f:e4:
                    c5:54:d9:d4:ef:66:cc:17:c8:02:12:04:e8:08:8f:
                    c4:0a:a1:51:e2:80:9c:c5:c9:42:46:51:26:b0:b8:
                    17:11
                Exponent: 65537 (0x10001)
        X509v3 extensions:
            X509v3 Subject Key Identifier: 
                19:33:90:35:7C:84:AE:CB:96:E5:76:D1:0E:38:FF:9C:CB:E4:7C:36
            X509v3 Authority Key Identifier: 
                keyid:19:33:90:35:7C:84:AE:CB:96:E5:76:D1:0E:38:FF:9C:CB:E4:7C:36

            X509v3 Basic Constraints: 
                CA:TRUE
    Signature Algorithm: sha256WithRSAEncryption
         a8:98:15:db:35:2f:3e:e8:de:c9:aa:cf:c2:52:1a:cb:50:b7:
         53:77:62:44:ee:f8:ef:d6:d7:11:ae:27:d9:0a:ff:49:6c:c3:
         f6:0c:04:b6:2b:79:36:7e:a0:21:35:19:b6:16:e8:06:cb:d7:
         55:fc:82:24:65:bc:3f:9c:2f:d0:27:64:81:03:5f:77:6e:b2:
         dd:3d:02:be:d2:83:33:12:86:11:81:e7:ed:3e:0c:87:75:36:
         8b:87:fb:59:a7:ad:dc:70:49:82:7e:98:2c:97:24:af:54:b2:
         43:56:db:d4:e4:50:aa:05:45:f5:26:d4:19:67:f6:ac:5a:d7:
         4c:b8:5f:78:5d:2b:25:fb:4e:58:a2:af:ed:bd:eb:2e:a3:47:
         67:f6:c5:4e:49:9e:ef:6c:66:31:71:96:fa:cd:f9:c9:9c:d3:
         e8:77:f0:18:df:2c:a4:91:08:ce:bc:ad:03:59:0e:59:a8:74:
         be:b1:e8:a4:d6:10:ec:a3:ee:7c:ab:88:46:d1:85:74:41:7a:
         7e:55:0a:c8:d8:48:7b:e2:79:f1:92:54:50:85:e6:45:40:eb:
         06:0a:5c:74:3a:77:78:22:83:bd:c7:e8:55:6a:30:14:ef:d1:
         26:ef:21:e9:78:7b:de:3a:6f:de:6d:0a:cc:f9:01:14:48:01:
         80:25:8a:c8
-----BEGIN CERTIFICATE-----
MIIEDTCCAvWgAwIBAgIBADANBgkqhkiG9w0BAQsFADCBoDELMAkGA1UEBhMCSVQx
DzANBgNVBAgMBk1pbGFubzEZMBcGA1UECgwQUGVyc29uYWwgQ0EgTWl0TTEeMBwG
A1UECwwVUGVyc29uYWwgQ0EgVW5pdCBNaXRNMSAwHgYDVQQDDBdQZXJzb25hbCBD
QSBDb21tb24gTmFtZTEjMCEGCSqGSIb3DQEJARYUbXljYWRlZmF1bHRAbXljYS5j
b20wHhcNMjAxMDE0MTU1NzI3WhcNMzMwNjMwMjM1OTU5WjCBoDELMAkGA1UEBhMC
SVQxDzANBgNVBAgMBk1pbGFubzEZMBcGA1UECgwQUGVyc29uYWwgQ0EgTWl0TTEe
MBwGA1UECwwVUGVyc29uYWwgQ0EgVW5pdCBNaXRNMSAwHgYDVQQDDBdQZXJzb25h
bCBDQSBDb21tb24gTmFtZTEjMCEGCSqGSIb3DQEJARYUbXljYWRlZmF1bHRAbXlj
YS5jb20wggEiMA0GCSqGSIb3DQEBAQUAA4IBDwAwggEKAoIBAQDA4vV4Ljh0c3g9
XNn91AGCIy28cqDr+oWKh9YQ0KW0t90qA6ap2TSV1mUrPrEyUMEJeIMhOx+o7SiF
erqcDgK1KMlqOO1N1Gc1xILoK6UKrTca2MXXjggDpn/BIJLIkc4HCeaiFJl6TfQI
A9WmoyJkIbrUbZEZAUAnO3BZg9Ll3MQJVHHg99g0cXXngtm7zsjj3H9kKGMdR7dM
O8XeoSyB3LUkfYKls7yFvJyHqLHJf6xObS74rk1UwuWvUoyxjc814x5FVJTWlIk8
PmD5bQ6vf12BzL35ZTWHXMRYxld/5MVU2dTvZswXyAISBOgIj8QKoVHigJzFyUJG
USawuBcRAgMBAAGjUDBOMB0GA1UdDgQWBBQZM5A1fISuy5bldtEOOP+cy+R8NjAf
BgNVHSMEGDAWgBQZM5A1fISuy5bldtEOOP+cy+R8NjAMBgNVHRMEBTADAQH/MA0G
CSqGSIb3DQEBCwUAA4IBAQComBXbNS8+6N7Jqs/CUhrLULdTd2JE7vjv1tcRrifZ
Cv9JbMP2DAS2K3k2fqAhNRm2FugGy9dV/IIkZbw/nC/QJ2SBA193brLdPQK+0oMz
EoYRgeftPgyHdTaLh/tZp63ccEmCfpgslySvVLJDVtvU5FCqBUX1JtQZZ/asWtdM
uF94XSsl+05Yoq/tvesuo0dn9sVOSZ7vbGYxcZb6zfnJnNPod/AY3yykkQjOvK0D
WQ5ZqHS+seik1hDso+58q4hG0YV0QXp+VQrI2Eh74nnxklRQheZFQOsGClx0Ond4
IoO9x+hVajAU79Em7yHpeHveOm/ebQrM+QEUSAGAJYrI
-----END CERTIFICATE-----
